
build/isodir/boot/Alo2.bin:     file format elf32-i386


Disassembly of section .text:

00100000 <TextModeVGA_putentry-0xc>:
  100000:	02 b0 ad 1b 03 00    	add    0x31bad(%eax),%dh
  100006:	00 00                	add    %al,(%eax)
  100008:	fb                   	sti    
  100009:	4f                   	dec    %edi
  10000a:	52                   	push   %edx
  10000b:	e4 8b                	in     $0x8b,%al

0010000c <TextModeVGA_putentry>:
  10000c:	8b 44 24 14          	mov    0x14(%esp),%eax
  100010:	8d 14 80             	lea    (%eax,%eax,4),%edx
  100013:	c1 e2 04             	shl    $0x4,%edx
  100016:	03 54 24 10          	add    0x10(%esp),%edx
  10001a:	8a 44 24 0c          	mov    0xc(%esp),%al
  10001e:	c1 e0 04             	shl    $0x4,%eax
  100021:	0b 44 24 08          	or     0x8(%esp),%eax
  100025:	c1 e0 08             	shl    $0x8,%eax
  100028:	66 0f be 4c 24 04    	movsbw 0x4(%esp),%cx
  10002e:	09 c8                	or     %ecx,%eax
  100030:	66 89 84 12 00 80 0b 	mov    %ax,0xb8000(%edx,%edx,1)
  100037:	00 
  100038:	c3                   	ret    
  100039:	66 90                	xchg   %ax,%ax
  10003b:	90                   	nop

0010003c <panic>:
  10003c:	83 ec 14             	sub    $0x14,%esp
  10003f:	ff 74 24 18          	pushl  0x18(%esp)
  100043:	68 14 1a 10 00       	push   $0x101a14
  100048:	e8 7f 02 00 00       	call   1002cc <terminal_printf>
  10004d:	fa                   	cli    
  10004e:	83 c4 10             	add    $0x10,%esp
  100051:	eb fe                	jmp    100051 <panic+0x15>
  100053:	90                   	nop

00100054 <itoa>:
  100054:	55                   	push   %ebp
  100055:	57                   	push   %edi
  100056:	56                   	push   %esi
  100057:	53                   	push   %ebx
  100058:	81 ec 00 04 00 00    	sub    $0x400,%esp
  10005e:	8b ac 24 14 04 00 00 	mov    0x414(%esp),%ebp
  100065:	8b bc 24 18 04 00 00 	mov    0x418(%esp),%edi
  10006c:	8b 9c 24 1c 04 00 00 	mov    0x41c(%esp),%ebx
  100073:	85 ed                	test   %ebp,%ebp
  100075:	78 3c                	js     1000b3 <itoa+0x5f>
  100077:	75 6a                	jne    1000e3 <itoa+0x8f>
  100079:	c7 04 24 30 00 00 00 	movl   $0x30,(%esp)
  100080:	b9 01 00 00 00       	mov    $0x1,%ecx
  100085:	8d 51 ff             	lea    -0x1(%ecx),%edx
  100088:	83 fa ff             	cmp    $0xffffffff,%edx
  10008b:	74 17                	je     1000a4 <itoa+0x50>
  10008d:	89 e6                	mov    %esp,%esi
  10008f:	8d 1c 96             	lea    (%esi,%edx,4),%ebx
  100092:	89 f8                	mov    %edi,%eax
  100094:	8d 74 17 01          	lea    0x1(%edi,%edx,1),%esi
  100098:	8b 13                	mov    (%ebx),%edx
  10009a:	88 10                	mov    %dl,(%eax)
  10009c:	83 eb 04             	sub    $0x4,%ebx
  10009f:	40                   	inc    %eax
  1000a0:	39 f0                	cmp    %esi,%eax
  1000a2:	75 f4                	jne    100098 <itoa+0x44>
  1000a4:	c6 04 0f 00          	movb   $0x0,(%edi,%ecx,1)
  1000a8:	81 c4 00 04 00 00    	add    $0x400,%esp
  1000ae:	5b                   	pop    %ebx
  1000af:	5e                   	pop    %esi
  1000b0:	5f                   	pop    %edi
  1000b1:	5d                   	pop    %ebp
  1000b2:	c3                   	ret    
  1000b3:	89 e8                	mov    %ebp,%eax
  1000b5:	f7 d8                	neg    %eax
  1000b7:	31 c9                	xor    %ecx,%ecx
  1000b9:	89 e6                	mov    %esp,%esi
  1000bb:	90                   	nop
  1000bc:	99                   	cltd   
  1000bd:	f7 fb                	idiv   %ebx
  1000bf:	0f be 92 78 1a 10 00 	movsbl 0x101a78(%edx),%edx
  1000c6:	89 14 8e             	mov    %edx,(%esi,%ecx,4)
  1000c9:	41                   	inc    %ecx
  1000ca:	85 c0                	test   %eax,%eax
  1000cc:	75 ee                	jne    1000bc <itoa+0x68>
  1000ce:	83 fb 0a             	cmp    $0xa,%ebx
  1000d1:	75 b2                	jne    100085 <itoa+0x31>
  1000d3:	85 ed                	test   %ebp,%ebp
  1000d5:	79 ae                	jns    100085 <itoa+0x31>
  1000d7:	89 ca                	mov    %ecx,%edx
  1000d9:	c7 04 8c 2d 00 00 00 	movl   $0x2d,(%esp,%ecx,4)
  1000e0:	41                   	inc    %ecx
  1000e1:	eb ac                	jmp    10008f <itoa+0x3b>
  1000e3:	89 e8                	mov    %ebp,%eax
  1000e5:	eb d0                	jmp    1000b7 <itoa+0x63>
  1000e7:	90                   	nop

001000e8 <Alo_Main>:
  1000e8:	83 ec 18             	sub    $0x18,%esp
  1000eb:	ff 74 24 1c          	pushl  0x1c(%esp)
  1000ef:	e8 b4 02 00 00       	call   1003a8 <HAL_init>
  1000f4:	c7 04 24 26 1a 10 00 	movl   $0x101a26,(%esp)
  1000fb:	e8 a0 01 00 00       	call   1002a0 <terminal_putstring>
  100100:	c7 04 24 37 1a 10 00 	movl   $0x101a37,(%esp)
  100107:	e8 94 01 00 00       	call   1002a0 <terminal_putstring>
  10010c:	58                   	pop    %eax
  10010d:	5a                   	pop    %edx
  10010e:	6a f3                	push   $0xfffffff3
  100110:	68 a0 1a 10 00       	push   $0x101aa0
  100115:	e8 b2 01 00 00       	call   1002cc <terminal_printf>
  10011a:	59                   	pop    %ecx
  10011b:	58                   	pop    %eax
  10011c:	68 53 1a 10 00       	push   $0x101a53
  100121:	68 58 1a 10 00       	push   $0x101a58
  100126:	e8 a1 01 00 00       	call   1002cc <terminal_printf>
  10012b:	83 c4 1c             	add    $0x1c,%esp
  10012e:	c3                   	ret    
  10012f:	90                   	nop

00100130 <terminal_init>:
  100130:	56                   	push   %esi
  100131:	53                   	push   %ebx
  100132:	52                   	push   %edx
  100133:	31 f6                	xor    %esi,%esi
  100135:	8d 76 00             	lea    0x0(%esi),%esi
  100138:	31 db                	xor    %ebx,%ebx
  10013a:	66 90                	xchg   %ax,%ax
  10013c:	83 ec 0c             	sub    $0xc,%esp
  10013f:	56                   	push   %esi
  100140:	53                   	push   %ebx
  100141:	6a 00                	push   $0x0
  100143:	6a 00                	push   $0x0
  100145:	6a 20                	push   $0x20
  100147:	e8 c0 fe ff ff       	call   10000c <TextModeVGA_putentry>
  10014c:	43                   	inc    %ebx
  10014d:	83 c4 20             	add    $0x20,%esp
  100150:	83 fb 50             	cmp    $0x50,%ebx
  100153:	75 e7                	jne    10013c <terminal_init+0xc>
  100155:	46                   	inc    %esi
  100156:	83 fe 19             	cmp    $0x19,%esi
  100159:	75 dd                	jne    100138 <terminal_init+0x8>
  10015b:	58                   	pop    %eax
  10015c:	5b                   	pop    %ebx
  10015d:	5e                   	pop    %esi
  10015e:	c3                   	ret    
  10015f:	90                   	nop

00100160 <terminal_movecursor>:
  100160:	53                   	push   %ebx
  100161:	83 ec 10             	sub    $0x10,%esp
  100164:	8b 5c 24 1c          	mov    0x1c(%esp),%ebx
  100168:	8d 1c 9b             	lea    (%ebx,%ebx,4),%ebx
  10016b:	c1 e3 04             	shl    $0x4,%ebx
  10016e:	03 5c 24 18          	add    0x18(%esp),%ebx
  100172:	6a 0e                	push   $0xe
  100174:	68 d4 03 00 00       	push   $0x3d4
  100179:	e8 e8 0f 00 00       	call   101166 <outportb>
  10017e:	e8 f7 0f 00 00       	call   10117a <io_wait>
  100183:	58                   	pop    %eax
  100184:	5a                   	pop    %edx
  100185:	0f b6 c7             	movzbl %bh,%eax
  100188:	50                   	push   %eax
  100189:	68 d5 03 00 00       	push   $0x3d5
  10018e:	e8 d3 0f 00 00       	call   101166 <outportb>
  100193:	e8 e2 0f 00 00       	call   10117a <io_wait>
  100198:	59                   	pop    %ecx
  100199:	58                   	pop    %eax
  10019a:	6a 0f                	push   $0xf
  10019c:	68 d4 03 00 00       	push   $0x3d4
  1001a1:	e8 c0 0f 00 00       	call   101166 <outportb>
  1001a6:	e8 cf 0f 00 00       	call   10117a <io_wait>
  1001ab:	58                   	pop    %eax
  1001ac:	5a                   	pop    %edx
  1001ad:	0f b6 db             	movzbl %bl,%ebx
  1001b0:	53                   	push   %ebx
  1001b1:	68 d5 03 00 00       	push   $0x3d5
  1001b6:	e8 ab 0f 00 00       	call   101166 <outportb>
  1001bb:	83 c4 18             	add    $0x18,%esp
  1001be:	5b                   	pop    %ebx
  1001bf:	e9 b6 0f 00 00       	jmp    10117a <io_wait>

001001c4 <terminal_putchar.part.0>:
  1001c4:	83 ec 0c             	sub    $0xc,%esp
  1001c7:	a1 20 2c 10 00       	mov    0x102c20,%eax
  1001cc:	83 f8 18             	cmp    $0x18,%eax
  1001cf:	74 1f                	je     1001f0 <terminal_putchar.part.0+0x2c>
  1001d1:	40                   	inc    %eax
  1001d2:	a3 20 2c 10 00       	mov    %eax,0x102c20
  1001d7:	c7 05 24 2c 10 00 00 	movl   $0x0,0x102c24
  1001de:	00 00 00 
  1001e1:	83 ec 08             	sub    $0x8,%esp
  1001e4:	50                   	push   %eax
  1001e5:	6a 01                	push   $0x1
  1001e7:	e8 74 ff ff ff       	call   100160 <terminal_movecursor>
  1001ec:	83 c4 1c             	add    $0x1c,%esp
  1001ef:	c3                   	ret    
  1001f0:	c7 05 20 2c 10 00 00 	movl   $0x0,0x102c20
  1001f7:	00 00 00 
  1001fa:	30 c0                	xor    %al,%al
  1001fc:	eb d9                	jmp    1001d7 <terminal_putchar.part.0+0x13>
  1001fe:	66 90                	xchg   %ax,%ax

00100200 <terminal_putchar>:
  100200:	57                   	push   %edi
  100201:	56                   	push   %esi
  100202:	53                   	push   %ebx
  100203:	8b 5c 24 10          	mov    0x10(%esp),%ebx
  100207:	8b 7c 24 14          	mov    0x14(%esp),%edi
  10020b:	8b 74 24 18          	mov    0x18(%esp),%esi
  10020f:	80 fb 0a             	cmp    $0xa,%bl
  100212:	74 4c                	je     100260 <terminal_putchar+0x60>
  100214:	a1 24 2c 10 00       	mov    0x102c24,%eax
  100219:	83 f8 4f             	cmp    $0x4f,%eax
  10021c:	74 6a                	je     100288 <terminal_putchar+0x88>
  10021e:	83 ec 0c             	sub    $0xc,%esp
  100221:	ff 35 20 2c 10 00    	pushl  0x102c20
  100227:	50                   	push   %eax
  100228:	57                   	push   %edi
  100229:	56                   	push   %esi
  10022a:	0f be db             	movsbl %bl,%ebx
  10022d:	53                   	push   %ebx
  10022e:	e8 d9 fd ff ff       	call   10000c <TextModeVGA_putentry>
  100233:	a1 24 2c 10 00       	mov    0x102c24,%eax
  100238:	83 c4 20             	add    $0x20,%esp
  10023b:	83 f8 4e             	cmp    $0x4e,%eax
  10023e:	74 28                	je     100268 <terminal_putchar+0x68>
  100240:	83 ec 08             	sub    $0x8,%esp
  100243:	ff 35 20 2c 10 00    	pushl  0x102c20
  100249:	40                   	inc    %eax
  10024a:	50                   	push   %eax
  10024b:	e8 10 ff ff ff       	call   100160 <terminal_movecursor>
  100250:	83 c4 10             	add    $0x10,%esp
  100253:	ff 05 24 2c 10 00    	incl   0x102c24
  100259:	5b                   	pop    %ebx
  10025a:	5e                   	pop    %esi
  10025b:	5f                   	pop    %edi
  10025c:	c3                   	ret    
  10025d:	8d 76 00             	lea    0x0(%esi),%esi
  100260:	5b                   	pop    %ebx
  100261:	5e                   	pop    %esi
  100262:	5f                   	pop    %edi
  100263:	e9 5c ff ff ff       	jmp    1001c4 <terminal_putchar.part.0>
  100268:	83 ec 08             	sub    $0x8,%esp
  10026b:	a1 20 2c 10 00       	mov    0x102c20,%eax
  100270:	40                   	inc    %eax
  100271:	50                   	push   %eax
  100272:	6a 00                	push   $0x0
  100274:	e8 e7 fe ff ff       	call   100160 <terminal_movecursor>
  100279:	83 c4 10             	add    $0x10,%esp
  10027c:	ff 05 24 2c 10 00    	incl   0x102c24
  100282:	5b                   	pop    %ebx
  100283:	5e                   	pop    %esi
  100284:	5f                   	pop    %edi
  100285:	c3                   	ret    
  100286:	66 90                	xchg   %ax,%ax
  100288:	50                   	push   %eax
  100289:	6a 00                	push   $0x0
  10028b:	6a 00                	push   $0x0
  10028d:	6a 0a                	push   $0xa
  10028f:	e8 6c ff ff ff       	call   100200 <terminal_putchar>
  100294:	a1 24 2c 10 00       	mov    0x102c24,%eax
  100299:	83 c4 10             	add    $0x10,%esp
  10029c:	eb 80                	jmp    10021e <terminal_putchar+0x1e>
  10029e:	66 90                	xchg   %ax,%ax

001002a0 <terminal_putstring>:
  1002a0:	53                   	push   %ebx
  1002a1:	83 ec 08             	sub    $0x8,%esp
  1002a4:	8b 5c 24 10          	mov    0x10(%esp),%ebx
  1002a8:	0f be 03             	movsbl (%ebx),%eax
  1002ab:	43                   	inc    %ebx
  1002ac:	84 c0                	test   %al,%al
  1002ae:	74 17                	je     1002c7 <terminal_putstring+0x27>
  1002b0:	52                   	push   %edx
  1002b1:	6a 02                	push   $0x2
  1002b3:	6a 00                	push   $0x0
  1002b5:	50                   	push   %eax
  1002b6:	e8 45 ff ff ff       	call   100200 <terminal_putchar>
  1002bb:	43                   	inc    %ebx
  1002bc:	0f be 43 ff          	movsbl -0x1(%ebx),%eax
  1002c0:	83 c4 10             	add    $0x10,%esp
  1002c3:	84 c0                	test   %al,%al
  1002c5:	75 e9                	jne    1002b0 <terminal_putstring+0x10>
  1002c7:	83 c4 08             	add    $0x8,%esp
  1002ca:	5b                   	pop    %ebx
  1002cb:	c3                   	ret    

001002cc <terminal_printf>:
  1002cc:	55                   	push   %ebp
  1002cd:	57                   	push   %edi
  1002ce:	56                   	push   %esi
  1002cf:	53                   	push   %ebx
  1002d0:	81 ec 0c 01 00 00    	sub    $0x10c,%esp
  1002d6:	8b 9c 24 20 01 00 00 	mov    0x120(%esp),%ebx
  1002dd:	8d b4 24 24 01 00 00 	lea    0x124(%esp),%esi
  1002e4:	0f be 0b             	movsbl (%ebx),%ecx
  1002e7:	85 c9                	test   %ecx,%ecx
  1002e9:	74 4e                	je     100339 <terminal_printf+0x6d>
  1002eb:	89 c8                	mov    %ecx,%eax
  1002ed:	31 ed                	xor    %ebp,%ebp
  1002ef:	31 ff                	xor    %edi,%edi
  1002f1:	8d 76 00             	lea    0x0(%esi),%esi
  1002f4:	3c 25                	cmp    $0x25,%al
  1002f6:	75 54                	jne    10034c <terminal_printf+0x80>
  1002f8:	8d 6c 2b 01          	lea    0x1(%ebx,%ebp,1),%ebp
  1002fc:	8a 45 00             	mov    0x0(%ebp),%al
  1002ff:	3c 73                	cmp    $0x73,%al
  100301:	74 6d                	je     100370 <terminal_printf+0xa4>
  100303:	3c 64                	cmp    $0x64,%al
  100305:	74 7d                	je     100384 <terminal_printf+0xb8>
  100307:	3c 25                	cmp    $0x25,%al
  100309:	74 51                	je     10035c <terminal_printf+0x90>
  10030b:	52                   	push   %edx
  10030c:	6a 02                	push   $0x2
  10030e:	6a 00                	push   $0x0
  100310:	6a 25                	push   $0x25
  100312:	e8 e9 fe ff ff       	call   100200 <terminal_putchar>
  100317:	83 c4 0c             	add    $0xc,%esp
  10031a:	6a 02                	push   $0x2
  10031c:	6a 00                	push   $0x0
  10031e:	0f be 45 00          	movsbl 0x0(%ebp),%eax
  100322:	50                   	push   %eax
  100323:	e8 d8 fe ff ff       	call   100200 <terminal_putchar>
  100328:	83 c4 10             	add    $0x10,%esp
  10032b:	47                   	inc    %edi
  10032c:	47                   	inc    %edi
  10032d:	89 fd                	mov    %edi,%ebp
  10032f:	0f be 0c 3b          	movsbl (%ebx,%edi,1),%ecx
  100333:	89 c8                	mov    %ecx,%eax
  100335:	85 c9                	test   %ecx,%ecx
  100337:	75 bb                	jne    1002f4 <terminal_printf+0x28>
  100339:	e8 86 fe ff ff       	call   1001c4 <terminal_putchar.part.0>
  10033e:	81 c4 0c 01 00 00    	add    $0x10c,%esp
  100344:	5b                   	pop    %ebx
  100345:	5e                   	pop    %esi
  100346:	5f                   	pop    %edi
  100347:	5d                   	pop    %ebp
  100348:	c3                   	ret    
  100349:	8d 76 00             	lea    0x0(%esi),%esi
  10034c:	50                   	push   %eax
  10034d:	6a 02                	push   $0x2
  10034f:	6a 00                	push   $0x0
  100351:	51                   	push   %ecx
  100352:	e8 a9 fe ff ff       	call   100200 <terminal_putchar>
  100357:	83 c4 10             	add    $0x10,%esp
  10035a:	eb d0                	jmp    10032c <terminal_printf+0x60>
  10035c:	51                   	push   %ecx
  10035d:	6a 02                	push   $0x2
  10035f:	6a 00                	push   $0x0
  100361:	6a 25                	push   $0x25
  100363:	e8 98 fe ff ff       	call   100200 <terminal_putchar>
  100368:	83 c4 10             	add    $0x10,%esp
  10036b:	eb be                	jmp    10032b <terminal_printf+0x5f>
  10036d:	8d 76 00             	lea    0x0(%esi),%esi
  100370:	8d 6e 04             	lea    0x4(%esi),%ebp
  100373:	83 ec 0c             	sub    $0xc,%esp
  100376:	ff 36                	pushl  (%esi)
  100378:	e8 23 ff ff ff       	call   1002a0 <terminal_putstring>
  10037d:	83 c4 10             	add    $0x10,%esp
  100380:	89 ee                	mov    %ebp,%esi
  100382:	eb a7                	jmp    10032b <terminal_printf+0x5f>
  100384:	89 f0                	mov    %esi,%eax
  100386:	83 c6 04             	add    $0x4,%esi
  100389:	55                   	push   %ebp
  10038a:	6a 0a                	push   $0xa
  10038c:	8d 54 24 08          	lea    0x8(%esp),%edx
  100390:	52                   	push   %edx
  100391:	ff 30                	pushl  (%eax)
  100393:	e8 bc fc ff ff       	call   100054 <itoa>
  100398:	58                   	pop    %eax
  100399:	8d 44 24 0c          	lea    0xc(%esp),%eax
  10039d:	50                   	push   %eax
  10039e:	e8 fd fe ff ff       	call   1002a0 <terminal_putstring>
  1003a3:	83 c4 10             	add    $0x10,%esp
  1003a6:	eb 83                	jmp    10032b <terminal_printf+0x5f>

001003a8 <HAL_init>:
  1003a8:	83 ec 0c             	sub    $0xc,%esp
  1003ab:	e8 68 00 00 00       	call   100418 <GDT_init>
  1003b0:	e8 9f 0d 00 00       	call   101154 <interrupts_init>
  1003b5:	83 c4 0c             	add    $0xc,%esp
  1003b8:	e9 73 fd ff ff       	jmp    100130 <terminal_init>
  1003bd:	66 90                	xchg   %ax,%ax
  1003bf:	90                   	nop

001003c0 <SetGDTEntry>:
  1003c0:	53                   	push   %ebx
  1003c1:	8b 44 24 08          	mov    0x8(%esp),%eax
  1003c5:	8b 4c 24 0c          	mov    0xc(%esp),%ecx
  1003c9:	8b 54 24 10          	mov    0x10(%esp),%edx
  1003cd:	8a 5c 24 14          	mov    0x14(%esp),%bl
  1003d1:	88 1c c5 35 2c 10 00 	mov    %bl,0x102c35(,%eax,8)
  1003d8:	66 89 0c c5 32 2c 10 	mov    %cx,0x102c32(,%eax,8)
  1003df:	00 
  1003e0:	66 89 14 c5 30 2c 10 	mov    %dx,0x102c30(,%eax,8)
  1003e7:	00 
  1003e8:	c1 ea 10             	shr    $0x10,%edx
  1003eb:	83 e2 0f             	and    $0xf,%edx
  1003ee:	8a 5c 24 18          	mov    0x18(%esp),%bl
  1003f2:	83 e3 f0             	and    $0xfffffff0,%ebx
  1003f5:	09 da                	or     %ebx,%edx
  1003f7:	88 14 c5 36 2c 10 00 	mov    %dl,0x102c36(,%eax,8)
  1003fe:	89 ca                	mov    %ecx,%edx
  100400:	c1 ea 10             	shr    $0x10,%edx
  100403:	88 14 c5 34 2c 10 00 	mov    %dl,0x102c34(,%eax,8)
  10040a:	c1 e9 18             	shr    $0x18,%ecx
  10040d:	88 0c c5 37 2c 10 00 	mov    %cl,0x102c37(,%eax,8)
  100414:	5b                   	pop    %ebx
  100415:	c3                   	ret    
  100416:	66 90                	xchg   %ax,%ax

00100418 <GDT_init>:
  100418:	83 ec 0c             	sub    $0xc,%esp
  10041b:	66 c7 05 28 2c 10 00 	movw   $0x17,0x102c28
  100422:	17 00 
  100424:	c7 05 2a 2c 10 00 30 	movl   $0x102c30,0x102c2a
  10042b:	2c 10 00 
  10042e:	c6 05 3d 2c 10 00 9a 	movb   $0x9a,0x102c3d
  100435:	66 c7 05 3a 2c 10 00 	movw   $0x0,0x102c3a
  10043c:	00 00 
  10043e:	66 c7 05 38 2c 10 00 	movw   $0xffff,0x102c38
  100445:	ff ff 
  100447:	c6 05 3e 2c 10 00 cf 	movb   $0xcf,0x102c3e
  10044e:	c6 05 3c 2c 10 00 00 	movb   $0x0,0x102c3c
  100455:	c6 05 3f 2c 10 00 00 	movb   $0x0,0x102c3f
  10045c:	c6 05 35 2c 10 00 00 	movb   $0x0,0x102c35
  100463:	66 c7 05 32 2c 10 00 	movw   $0x0,0x102c32
  10046a:	00 00 
  10046c:	66 c7 05 30 2c 10 00 	movw   $0x0,0x102c30
  100473:	00 00 
  100475:	c6 05 36 2c 10 00 00 	movb   $0x0,0x102c36
  10047c:	c6 05 34 2c 10 00 00 	movb   $0x0,0x102c34
  100483:	c6 05 37 2c 10 00 00 	movb   $0x0,0x102c37
  10048a:	c6 05 45 2c 10 00 92 	movb   $0x92,0x102c45
  100491:	66 c7 05 42 2c 10 00 	movw   $0x0,0x102c42
  100498:	00 00 
  10049a:	66 c7 05 40 2c 10 00 	movw   $0xffff,0x102c40
  1004a1:	ff ff 
  1004a3:	c6 05 46 2c 10 00 cf 	movb   $0xcf,0x102c46
  1004aa:	c6 05 44 2c 10 00 00 	movb   $0x0,0x102c44
  1004b1:	c6 05 47 2c 10 00 00 	movb   $0x0,0x102c47
  1004b8:	6a 08                	push   $0x8
  1004ba:	6a 10                	push   $0x10
  1004bc:	83 ec 08             	sub    $0x8,%esp
  1004bf:	a1 28 2c 10 00       	mov    0x102c28,%eax
  1004c4:	89 04 24             	mov    %eax,(%esp)
  1004c7:	a1 2c 2c 10 00       	mov    0x102c2c,%eax
  1004cc:	66 89 44 24 04       	mov    %ax,0x4(%esp)
  1004d1:	e8 bd 0c 00 00       	call   101193 <load_gdt>
  1004d6:	83 c4 1c             	add    $0x1c,%esp
  1004d9:	c3                   	ret    
  1004da:	66 90                	xchg   %ax,%ax

001004dc <PIC_get_irq_register>:
  1004dc:	53                   	push   %ebx
  1004dd:	83 ec 10             	sub    $0x10,%esp
  1004e0:	0f b6 5c 24 18       	movzbl 0x18(%esp),%ebx
  1004e5:	53                   	push   %ebx
  1004e6:	6a 20                	push   $0x20
  1004e8:	e8 79 0c 00 00       	call   101166 <outportb>
  1004ed:	58                   	pop    %eax
  1004ee:	5a                   	pop    %edx
  1004ef:	53                   	push   %ebx
  1004f0:	68 a0 00 00 00       	push   $0xa0
  1004f5:	e8 6c 0c 00 00       	call   101166 <outportb>
  1004fa:	c7 04 24 a0 00 00 00 	movl   $0xa0,(%esp)
  100501:	e8 6b 0c 00 00       	call   101171 <inportb>
  100506:	88 c3                	mov    %al,%bl
  100508:	c7 04 24 20 00 00 00 	movl   $0x20,(%esp)
  10050f:	e8 5d 0c 00 00       	call   101171 <inportb>
  100514:	0f b6 d0             	movzbl %al,%edx
  100517:	89 d8                	mov    %ebx,%eax
  100519:	c1 e0 08             	shl    $0x8,%eax
  10051c:	09 d0                	or     %edx,%eax
  10051e:	83 c4 18             	add    $0x18,%esp
  100521:	5b                   	pop    %ebx
  100522:	c3                   	ret    
  100523:	90                   	nop

00100524 <PIC_get_irr>:
  100524:	83 ec 18             	sub    $0x18,%esp
  100527:	6a 0a                	push   $0xa
  100529:	e8 ae ff ff ff       	call   1004dc <PIC_get_irq_register>
  10052e:	83 c4 1c             	add    $0x1c,%esp
  100531:	c3                   	ret    
  100532:	66 90                	xchg   %ax,%ax

00100534 <PIC_get_isr>:
  100534:	83 ec 18             	sub    $0x18,%esp
  100537:	6a 0b                	push   $0xb
  100539:	e8 9e ff ff ff       	call   1004dc <PIC_get_irq_register>
  10053e:	83 c4 1c             	add    $0x1c,%esp
  100541:	c3                   	ret    
  100542:	66 90                	xchg   %ax,%ax

00100544 <PIC_SetMask>:
  100544:	56                   	push   %esi
  100545:	53                   	push   %ebx
  100546:	53                   	push   %ebx
  100547:	8b 74 24 10          	mov    0x10(%esp),%esi
  10054b:	83 fe 07             	cmp    $0x7,%esi
  10054e:	7e 30                	jle    100580 <PIC_SetMask+0x3c>
  100550:	83 ee 08             	sub    $0x8,%esi
  100553:	bb a1 00 00 00       	mov    $0xa1,%ebx
  100558:	83 ec 0c             	sub    $0xc,%esp
  10055b:	53                   	push   %ebx
  10055c:	e8 10 0c 00 00       	call   101171 <inportb>
  100561:	5a                   	pop    %edx
  100562:	59                   	pop    %ecx
  100563:	ba 01 00 00 00       	mov    $0x1,%edx
  100568:	89 f1                	mov    %esi,%ecx
  10056a:	d3 e2                	shl    %cl,%edx
  10056c:	09 d0                	or     %edx,%eax
  10056e:	0f b6 c0             	movzbl %al,%eax
  100571:	50                   	push   %eax
  100572:	53                   	push   %ebx
  100573:	e8 ee 0b 00 00       	call   101166 <outportb>
  100578:	83 c4 14             	add    $0x14,%esp
  10057b:	5b                   	pop    %ebx
  10057c:	5e                   	pop    %esi
  10057d:	c3                   	ret    
  10057e:	66 90                	xchg   %ax,%ax
  100580:	bb 21 00 00 00       	mov    $0x21,%ebx
  100585:	eb d1                	jmp    100558 <PIC_SetMask+0x14>
  100587:	90                   	nop

00100588 <PIC_ClearMask>:
  100588:	56                   	push   %esi
  100589:	53                   	push   %ebx
  10058a:	53                   	push   %ebx
  10058b:	8b 5c 24 10          	mov    0x10(%esp),%ebx
  10058f:	83 fb 07             	cmp    $0x7,%ebx
  100592:	7e 30                	jle    1005c4 <PIC_ClearMask+0x3c>
  100594:	83 eb 08             	sub    $0x8,%ebx
  100597:	be a1 00 00 00       	mov    $0xa1,%esi
  10059c:	83 ec 0c             	sub    $0xc,%esp
  10059f:	56                   	push   %esi
  1005a0:	e8 cc 0b 00 00       	call   101171 <inportb>
  1005a5:	5a                   	pop    %edx
  1005a6:	59                   	pop    %ecx
  1005a7:	ba fe ff ff ff       	mov    $0xfffffffe,%edx
  1005ac:	88 d9                	mov    %bl,%cl
  1005ae:	d3 c2                	rol    %cl,%edx
  1005b0:	21 d0                	and    %edx,%eax
  1005b2:	0f b6 c0             	movzbl %al,%eax
  1005b5:	50                   	push   %eax
  1005b6:	56                   	push   %esi
  1005b7:	e8 aa 0b 00 00       	call   101166 <outportb>
  1005bc:	83 c4 14             	add    $0x14,%esp
  1005bf:	5b                   	pop    %ebx
  1005c0:	5e                   	pop    %esi
  1005c1:	c3                   	ret    
  1005c2:	66 90                	xchg   %ax,%ax
  1005c4:	be 21 00 00 00       	mov    $0x21,%esi
  1005c9:	eb d1                	jmp    10059c <PIC_ClearMask+0x14>
  1005cb:	90                   	nop

001005cc <PIC_remap>:
  1005cc:	55                   	push   %ebp
  1005cd:	57                   	push   %edi
  1005ce:	56                   	push   %esi
  1005cf:	53                   	push   %ebx
  1005d0:	83 ec 18             	sub    $0x18,%esp
  1005d3:	8b 6c 24 2c          	mov    0x2c(%esp),%ebp
  1005d7:	8b 7c 24 30          	mov    0x30(%esp),%edi
  1005db:	6a 21                	push   $0x21
  1005dd:	e8 8f 0b 00 00       	call   101171 <inportb>
  1005e2:	89 c6                	mov    %eax,%esi
  1005e4:	c7 04 24 a1 00 00 00 	movl   $0xa1,(%esp)
  1005eb:	e8 81 0b 00 00       	call   101171 <inportb>
  1005f0:	0f b6 d8             	movzbl %al,%ebx
  1005f3:	58                   	pop    %eax
  1005f4:	5a                   	pop    %edx
  1005f5:	6a 11                	push   $0x11
  1005f7:	6a 20                	push   $0x20
  1005f9:	e8 68 0b 00 00       	call   101166 <outportb>
  1005fe:	e8 77 0b 00 00       	call   10117a <io_wait>
  100603:	59                   	pop    %ecx
  100604:	58                   	pop    %eax
  100605:	6a 11                	push   $0x11
  100607:	68 a0 00 00 00       	push   $0xa0
  10060c:	e8 55 0b 00 00       	call   101166 <outportb>
  100611:	e8 64 0b 00 00       	call   10117a <io_wait>
  100616:	58                   	pop    %eax
  100617:	5a                   	pop    %edx
  100618:	89 e8                	mov    %ebp,%eax
  10061a:	0f b6 e8             	movzbl %al,%ebp
  10061d:	55                   	push   %ebp
  10061e:	6a 21                	push   $0x21
  100620:	e8 41 0b 00 00       	call   101166 <outportb>
  100625:	e8 50 0b 00 00       	call   10117a <io_wait>
  10062a:	59                   	pop    %ecx
  10062b:	5d                   	pop    %ebp
  10062c:	89 f8                	mov    %edi,%eax
  10062e:	0f b6 f8             	movzbl %al,%edi
  100631:	57                   	push   %edi
  100632:	68 a1 00 00 00       	push   $0xa1
  100637:	e8 2a 0b 00 00       	call   101166 <outportb>
  10063c:	e8 39 0b 00 00       	call   10117a <io_wait>
  100641:	58                   	pop    %eax
  100642:	5a                   	pop    %edx
  100643:	6a 04                	push   $0x4
  100645:	6a 21                	push   $0x21
  100647:	e8 1a 0b 00 00       	call   101166 <outportb>
  10064c:	e8 29 0b 00 00       	call   10117a <io_wait>
  100651:	59                   	pop    %ecx
  100652:	5f                   	pop    %edi
  100653:	6a 02                	push   $0x2
  100655:	68 a1 00 00 00       	push   $0xa1
  10065a:	e8 07 0b 00 00       	call   101166 <outportb>
  10065f:	e8 16 0b 00 00       	call   10117a <io_wait>
  100664:	5d                   	pop    %ebp
  100665:	58                   	pop    %eax
  100666:	6a 01                	push   $0x1
  100668:	6a 21                	push   $0x21
  10066a:	e8 f7 0a 00 00       	call   101166 <outportb>
  10066f:	e8 06 0b 00 00       	call   10117a <io_wait>
  100674:	58                   	pop    %eax
  100675:	5a                   	pop    %edx
  100676:	6a 01                	push   $0x1
  100678:	68 a1 00 00 00       	push   $0xa1
  10067d:	e8 e4 0a 00 00       	call   101166 <outportb>
  100682:	e8 f3 0a 00 00       	call   10117a <io_wait>
  100687:	59                   	pop    %ecx
  100688:	5f                   	pop    %edi
  100689:	89 f0                	mov    %esi,%eax
  10068b:	0f b6 f0             	movzbl %al,%esi
  10068e:	56                   	push   %esi
  10068f:	6a 21                	push   $0x21
  100691:	e8 d0 0a 00 00       	call   101166 <outportb>
  100696:	89 5c 24 34          	mov    %ebx,0x34(%esp)
  10069a:	c7 44 24 30 a1 00 00 	movl   $0xa1,0x30(%esp)
  1006a1:	00 
  1006a2:	83 c4 1c             	add    $0x1c,%esp
  1006a5:	5b                   	pop    %ebx
  1006a6:	5e                   	pop    %esi
  1006a7:	5f                   	pop    %edi
  1006a8:	5d                   	pop    %ebp
  1006a9:	e9 b8 0a 00 00       	jmp    101166 <outportb>
  1006ae:	66 90                	xchg   %ax,%ax

001006b0 <PIC_SendEOI>:
  1006b0:	83 ec 0c             	sub    $0xc,%esp
  1006b3:	83 7c 24 10 07       	cmpl   $0x7,0x10(%esp)
  1006b8:	7e 12                	jle    1006cc <PIC_SendEOI+0x1c>
  1006ba:	83 ec 08             	sub    $0x8,%esp
  1006bd:	6a 20                	push   $0x20
  1006bf:	68 a0 00 00 00       	push   $0xa0
  1006c4:	e8 9d 0a 00 00       	call   101166 <outportb>
  1006c9:	83 c4 10             	add    $0x10,%esp
  1006cc:	83 ec 08             	sub    $0x8,%esp
  1006cf:	6a 20                	push   $0x20
  1006d1:	6a 20                	push   $0x20
  1006d3:	e8 8e 0a 00 00       	call   101166 <outportb>
  1006d8:	83 c4 1c             	add    $0x1c,%esp
  1006db:	c3                   	ret    

001006dc <PIC_Disable>:
  1006dc:	83 ec 14             	sub    $0x14,%esp
  1006df:	68 ff 00 00 00       	push   $0xff
  1006e4:	6a 20                	push   $0x20
  1006e6:	e8 7b 0a 00 00       	call   101166 <outportb>
  1006eb:	58                   	pop    %eax
  1006ec:	5a                   	pop    %edx
  1006ed:	68 ff 00 00 00       	push   $0xff
  1006f2:	68 a0 00 00 00       	push   $0xa0
  1006f7:	e8 6a 0a 00 00       	call   101166 <outportb>
  1006fc:	83 c4 1c             	add    $0x1c,%esp
  1006ff:	e9 76 0a 00 00       	jmp    10117a <io_wait>

00100704 <PIC_init>:
  100704:	83 ec 14             	sub    $0x14,%esp
  100707:	6a 2f                	push   $0x2f
  100709:	6a 20                	push   $0x20
  10070b:	e8 bc fe ff ff       	call   1005cc <PIC_remap>
  100710:	83 c4 1c             	add    $0x1c,%esp
  100713:	c3                   	ret    

00100714 <Interrupt_Exception_Handler>:
  100714:	55                   	push   %ebp
  100715:	57                   	push   %edi
  100716:	56                   	push   %esi
  100717:	53                   	push   %ebx
  100718:	83 ec 48             	sub    $0x48,%esp
  10071b:	8b 44 24 6c          	mov    0x6c(%esp),%eax
  10071f:	89 44 24 14          	mov    %eax,0x14(%esp)
  100723:	8b 5c 24 70          	mov    0x70(%esp),%ebx
  100727:	89 5c 24 18          	mov    %ebx,0x18(%esp)
  10072b:	8b 74 24 74          	mov    0x74(%esp),%esi
  10072f:	89 74 24 1c          	mov    %esi,0x1c(%esp)
  100733:	8b 6c 24 78          	mov    0x78(%esp),%ebp
  100737:	8b 44 24 7c          	mov    0x7c(%esp),%eax
  10073b:	89 44 24 38          	mov    %eax,0x38(%esp)
  10073f:	8b 94 24 84 00 00 00 	mov    0x84(%esp),%edx
  100746:	89 54 24 34          	mov    %edx,0x34(%esp)
  10074a:	8b 8c 24 88 00 00 00 	mov    0x88(%esp),%ecx
  100751:	89 4c 24 30          	mov    %ecx,0x30(%esp)
  100755:	8b bc 24 8c 00 00 00 	mov    0x8c(%esp),%edi
  10075c:	89 7c 24 20          	mov    %edi,0x20(%esp)
  100760:	8b 94 24 90 00 00 00 	mov    0x90(%esp),%edx
  100767:	89 54 24 24          	mov    %edx,0x24(%esp)
  10076b:	8b 8c 24 94 00 00 00 	mov    0x94(%esp),%ecx
  100772:	89 4c 24 28          	mov    %ecx,0x28(%esp)
  100776:	8b 84 24 98 00 00 00 	mov    0x98(%esp),%eax
  10077d:	89 44 24 2c          	mov    %eax,0x2c(%esp)
  100781:	8b 9c 24 9c 00 00 00 	mov    0x9c(%esp),%ebx
  100788:	8b b4 24 a0 00 00 00 	mov    0xa0(%esp),%esi
  10078f:	8b bc 24 a4 00 00 00 	mov    0xa4(%esp),%edi
  100796:	ff 74 24 68          	pushl  0x68(%esp)
  10079a:	ff 74 24 68          	pushl  0x68(%esp)
  10079e:	ff 74 24 68          	pushl  0x68(%esp)
  1007a2:	ff 74 24 68          	pushl  0x68(%esp)
  1007a6:	68 c4 1a 10 00       	push   $0x101ac4
  1007ab:	e8 1c fb ff ff       	call   1002cc <terminal_printf>
  1007b0:	83 c4 20             	add    $0x20,%esp
  1007b3:	8b 4c 24 24          	mov    0x24(%esp),%ecx
  1007b7:	51                   	push   %ecx
  1007b8:	8b 54 24 2c          	mov    0x2c(%esp),%edx
  1007bc:	52                   	push   %edx
  1007bd:	8b 44 24 34          	mov    0x34(%esp),%eax
  1007c1:	50                   	push   %eax
  1007c2:	55                   	push   %ebp
  1007c3:	ff 74 24 20          	pushl  0x20(%esp)
  1007c7:	ff 74 24 20          	pushl  0x20(%esp)
  1007cb:	ff 74 24 20          	pushl  0x20(%esp)
  1007cf:	68 e4 1a 10 00       	push   $0x101ae4
  1007d4:	e8 f3 fa ff ff       	call   1002cc <terminal_printf>
  1007d9:	83 c4 1c             	add    $0x1c,%esp
  1007dc:	ff 74 24 1c          	pushl  0x1c(%esp)
  1007e0:	ff 74 24 1c          	pushl  0x1c(%esp)
  1007e4:	68 28 1b 10 00       	push   $0x101b28
  1007e9:	e8 de fa ff ff       	call   1002cc <terminal_printf>
  1007ee:	58                   	pop    %eax
  1007ef:	5a                   	pop    %edx
  1007f0:	57                   	push   %edi
  1007f1:	56                   	push   %esi
  1007f2:	53                   	push   %ebx
  1007f3:	ff 74 24 34          	pushl  0x34(%esp)
  1007f7:	ff 74 24 34          	pushl  0x34(%esp)
  1007fb:	68 50 1b 10 00       	push   $0x101b50
  100800:	e8 c7 fa ff ff       	call   1002cc <terminal_printf>
  100805:	c7 44 24 70 67 1a 10 	movl   $0x101a67,0x70(%esp)
  10080c:	00 
  10080d:	83 c4 5c             	add    $0x5c,%esp
  100810:	5b                   	pop    %ebx
  100811:	5e                   	pop    %esi
  100812:	5f                   	pop    %edi
  100813:	5d                   	pop    %ebp
  100814:	e9 23 f8 ff ff       	jmp    10003c <panic>
  100819:	8d 76 00             	lea    0x0(%esi),%esi

0010081c <SetIDTEntry>:
  10081c:	8b 44 24 04          	mov    0x4(%esp),%eax
  100820:	8b 54 24 08          	mov    0x8(%esp),%edx
  100824:	66 89 14 c5 20 20 10 	mov    %dx,0x102020(,%eax,8)
  10082b:	00 
  10082c:	c1 ea 10             	shr    $0x10,%edx
  10082f:	66 89 14 c5 26 20 10 	mov    %dx,0x102026(,%eax,8)
  100836:	00 
  100837:	8b 54 24 0c          	mov    0xc(%esp),%edx
  10083b:	66 89 14 c5 22 20 10 	mov    %dx,0x102022(,%eax,8)
  100842:	00 
  100843:	c6 04 c5 24 20 10 00 	movb   $0x0,0x102024(,%eax,8)
  10084a:	00 
  10084b:	8b 54 24 10          	mov    0x10(%esp),%edx
  10084f:	88 14 c5 25 20 10 00 	mov    %dl,0x102025(,%eax,8)
  100856:	c3                   	ret    
  100857:	90                   	nop

00100858 <Interrupt_Handler>:
  100858:	55                   	push   %ebp
  100859:	57                   	push   %edi
  10085a:	56                   	push   %esi
  10085b:	53                   	push   %ebx
  10085c:	83 ec 5c             	sub    $0x5c,%esp
  10085f:	8b 9c 24 a0 00 00 00 	mov    0xa0(%esp),%ebx
  100866:	83 fb 1f             	cmp    $0x1f,%ebx
  100869:	77 1d                	ja     100888 <Interrupt_Handler+0x30>
  10086b:	b9 13 00 00 00       	mov    $0x13,%ecx
  100870:	8d 7c 24 70          	lea    0x70(%esp),%edi
  100874:	89 fe                	mov    %edi,%esi
  100876:	f3 a5                	rep movsl %ds:(%esi),%es:(%edi)
  100878:	8b 04 9d 20 28 10 00 	mov    0x102820(,%ebx,4),%eax
  10087f:	83 c4 5c             	add    $0x5c,%esp
  100882:	5b                   	pop    %ebx
  100883:	5e                   	pop    %esi
  100884:	5f                   	pop    %edi
  100885:	5d                   	pop    %ebp
  100886:	ff e0                	jmp    *%eax
  100888:	8d 6c 24 04          	lea    0x4(%esp),%ebp
  10088c:	b9 13 00 00 00       	mov    $0x13,%ecx
  100891:	89 ef                	mov    %ebp,%edi
  100893:	8d 74 24 70          	lea    0x70(%esp),%esi
  100897:	f3 a5                	rep movsl %ds:(%esi),%es:(%edi)
  100899:	e8 96 fc ff ff       	call   100534 <PIC_get_isr>
  10089e:	0f b7 c0             	movzwl %ax,%eax
  1008a1:	88 d9                	mov    %bl,%cl
  1008a3:	d3 f8                	sar    %cl,%eax
  1008a5:	a8 01                	test   $0x1,%al
  1008a7:	74 37                	je     1008e0 <Interrupt_Handler+0x88>
  1008a9:	8b 04 9d 20 28 10 00 	mov    0x102820(,%ebx,4),%eax
  1008b0:	85 c0                	test   %eax,%eax
  1008b2:	74 17                	je     1008cb <Interrupt_Handler+0x73>
  1008b4:	89 5c 24 34          	mov    %ebx,0x34(%esp)
  1008b8:	83 ec 50             	sub    $0x50,%esp
  1008bb:	b9 13 00 00 00       	mov    $0x13,%ecx
  1008c0:	89 e7                	mov    %esp,%edi
  1008c2:	89 ee                	mov    %ebp,%esi
  1008c4:	f3 a5                	rep movsl %ds:(%esi),%es:(%edi)
  1008c6:	ff d0                	call   *%eax
  1008c8:	83 c4 50             	add    $0x50,%esp
  1008cb:	83 eb 20             	sub    $0x20,%ebx
  1008ce:	89 5c 24 70          	mov    %ebx,0x70(%esp)
  1008d2:	83 c4 5c             	add    $0x5c,%esp
  1008d5:	5b                   	pop    %ebx
  1008d6:	5e                   	pop    %esi
  1008d7:	5f                   	pop    %edi
  1008d8:	5d                   	pop    %ebp
  1008d9:	e9 d2 fd ff ff       	jmp    1006b0 <PIC_SendEOI>
  1008de:	66 90                	xchg   %ax,%ax
  1008e0:	83 fb 27             	cmp    $0x27,%ebx
  1008e3:	77 0b                	ja     1008f0 <Interrupt_Handler+0x98>
  1008e5:	83 c4 5c             	add    $0x5c,%esp
  1008e8:	5b                   	pop    %ebx
  1008e9:	5e                   	pop    %esi
  1008ea:	5f                   	pop    %edi
  1008eb:	5d                   	pop    %ebp
  1008ec:	c3                   	ret    
  1008ed:	8d 76 00             	lea    0x0(%esi),%esi
  1008f0:	c7 44 24 70 00 00 00 	movl   $0x0,0x70(%esp)
  1008f7:	00 
  1008f8:	eb d8                	jmp    1008d2 <Interrupt_Handler+0x7a>
  1008fa:	66 90                	xchg   %ax,%ax

001008fc <IDT_init>:
  1008fc:	66 c7 05 00 20 10 00 	movw   $0x7ff,0x102000
  100903:	ff 07 
  100905:	c7 05 02 20 10 00 20 	movl   $0x102020,0x102002
  10090c:	20 10 00 
  10090f:	b8 b5 11 10 00       	mov    $0x1011b5,%eax
  100914:	66 a3 20 20 10 00    	mov    %ax,0x102020
  10091a:	c1 e8 10             	shr    $0x10,%eax
  10091d:	66 a3 26 20 10 00    	mov    %ax,0x102026
  100923:	66 c7 05 22 20 10 00 	movw   $0x8,0x102022
  10092a:	08 00 
  10092c:	c6 05 24 20 10 00 00 	movb   $0x0,0x102024
  100933:	c6 05 25 20 10 00 8e 	movb   $0x8e,0x102025
  10093a:	b8 bf 11 10 00       	mov    $0x1011bf,%eax
  10093f:	66 a3 28 20 10 00    	mov    %ax,0x102028
  100945:	c1 e8 10             	shr    $0x10,%eax
  100948:	66 a3 2e 20 10 00    	mov    %ax,0x10202e
  10094e:	66 c7 05 2a 20 10 00 	movw   $0x8,0x10202a
  100955:	08 00 
  100957:	c6 05 2c 20 10 00 00 	movb   $0x0,0x10202c
  10095e:	c6 05 2d 20 10 00 8e 	movb   $0x8e,0x10202d
  100965:	b8 c9 11 10 00       	mov    $0x1011c9,%eax
  10096a:	66 a3 30 20 10 00    	mov    %ax,0x102030
  100970:	c1 e8 10             	shr    $0x10,%eax
  100973:	66 a3 36 20 10 00    	mov    %ax,0x102036
  100979:	66 c7 05 32 20 10 00 	movw   $0x8,0x102032
  100980:	08 00 
  100982:	c6 05 34 20 10 00 00 	movb   $0x0,0x102034
  100989:	c6 05 35 20 10 00 8e 	movb   $0x8e,0x102035
  100990:	b8 d3 11 10 00       	mov    $0x1011d3,%eax
  100995:	66 a3 38 20 10 00    	mov    %ax,0x102038
  10099b:	c1 e8 10             	shr    $0x10,%eax
  10099e:	66 a3 3e 20 10 00    	mov    %ax,0x10203e
  1009a4:	66 c7 05 3a 20 10 00 	movw   $0x8,0x10203a
  1009ab:	08 00 
  1009ad:	c6 05 3c 20 10 00 00 	movb   $0x0,0x10203c
  1009b4:	c6 05 3d 20 10 00 8e 	movb   $0x8e,0x10203d
  1009bb:	b8 dd 11 10 00       	mov    $0x1011dd,%eax
  1009c0:	66 a3 40 20 10 00    	mov    %ax,0x102040
  1009c6:	c1 e8 10             	shr    $0x10,%eax
  1009c9:	66 a3 46 20 10 00    	mov    %ax,0x102046
  1009cf:	66 c7 05 42 20 10 00 	movw   $0x8,0x102042
  1009d6:	08 00 
  1009d8:	c6 05 44 20 10 00 00 	movb   $0x0,0x102044
  1009df:	c6 05 45 20 10 00 8e 	movb   $0x8e,0x102045
  1009e6:	b8 e7 11 10 00       	mov    $0x1011e7,%eax
  1009eb:	66 a3 48 20 10 00    	mov    %ax,0x102048
  1009f1:	c1 e8 10             	shr    $0x10,%eax
  1009f4:	66 a3 4e 20 10 00    	mov    %ax,0x10204e
  1009fa:	66 c7 05 4a 20 10 00 	movw   $0x8,0x10204a
  100a01:	08 00 
  100a03:	c6 05 4c 20 10 00 00 	movb   $0x0,0x10204c
  100a0a:	c6 05 4d 20 10 00 8e 	movb   $0x8e,0x10204d
  100a11:	b8 f1 11 10 00       	mov    $0x1011f1,%eax
  100a16:	66 a3 50 20 10 00    	mov    %ax,0x102050
  100a1c:	c1 e8 10             	shr    $0x10,%eax
  100a1f:	66 a3 56 20 10 00    	mov    %ax,0x102056
  100a25:	66 c7 05 52 20 10 00 	movw   $0x8,0x102052
  100a2c:	08 00 
  100a2e:	c6 05 54 20 10 00 00 	movb   $0x0,0x102054
  100a35:	c6 05 55 20 10 00 8e 	movb   $0x8e,0x102055
  100a3c:	b8 fb 11 10 00       	mov    $0x1011fb,%eax
  100a41:	66 a3 58 20 10 00    	mov    %ax,0x102058
  100a47:	c1 e8 10             	shr    $0x10,%eax
  100a4a:	66 a3 5e 20 10 00    	mov    %ax,0x10205e
  100a50:	66 c7 05 5a 20 10 00 	movw   $0x8,0x10205a
  100a57:	08 00 
  100a59:	c6 05 5c 20 10 00 00 	movb   $0x0,0x10205c
  100a60:	c6 05 5d 20 10 00 8e 	movb   $0x8e,0x10205d
  100a67:	b8 05 12 10 00       	mov    $0x101205,%eax
  100a6c:	66 a3 60 20 10 00    	mov    %ax,0x102060
  100a72:	c1 e8 10             	shr    $0x10,%eax
  100a75:	66 a3 66 20 10 00    	mov    %ax,0x102066
  100a7b:	66 c7 05 62 20 10 00 	movw   $0x8,0x102062
  100a82:	08 00 
  100a84:	c6 05 64 20 10 00 00 	movb   $0x0,0x102064
  100a8b:	c6 05 65 20 10 00 8e 	movb   $0x8e,0x102065
  100a92:	b8 0d 12 10 00       	mov    $0x10120d,%eax
  100a97:	66 a3 68 20 10 00    	mov    %ax,0x102068
  100a9d:	c1 e8 10             	shr    $0x10,%eax
  100aa0:	66 a3 6e 20 10 00    	mov    %ax,0x10206e
  100aa6:	66 c7 05 6a 20 10 00 	movw   $0x8,0x10206a
  100aad:	08 00 
  100aaf:	c6 05 6c 20 10 00 00 	movb   $0x0,0x10206c
  100ab6:	c6 05 6d 20 10 00 8e 	movb   $0x8e,0x10206d
  100abd:	b8 17 12 10 00       	mov    $0x101217,%eax
  100ac2:	66 a3 70 20 10 00    	mov    %ax,0x102070
  100ac8:	c1 e8 10             	shr    $0x10,%eax
  100acb:	66 a3 76 20 10 00    	mov    %ax,0x102076
  100ad1:	66 c7 05 72 20 10 00 	movw   $0x8,0x102072
  100ad8:	08 00 
  100ada:	c6 05 74 20 10 00 00 	movb   $0x0,0x102074
  100ae1:	c6 05 75 20 10 00 8e 	movb   $0x8e,0x102075
  100ae8:	b8 1f 12 10 00       	mov    $0x10121f,%eax
  100aed:	66 a3 78 20 10 00    	mov    %ax,0x102078
  100af3:	c1 e8 10             	shr    $0x10,%eax
  100af6:	66 a3 7e 20 10 00    	mov    %ax,0x10207e
  100afc:	66 c7 05 7a 20 10 00 	movw   $0x8,0x10207a
  100b03:	08 00 
  100b05:	c6 05 7c 20 10 00 00 	movb   $0x0,0x10207c
  100b0c:	c6 05 7d 20 10 00 8e 	movb   $0x8e,0x10207d
  100b13:	b8 27 12 10 00       	mov    $0x101227,%eax
  100b18:	66 a3 80 20 10 00    	mov    %ax,0x102080
  100b1e:	c1 e8 10             	shr    $0x10,%eax
  100b21:	66 a3 86 20 10 00    	mov    %ax,0x102086
  100b27:	66 c7 05 82 20 10 00 	movw   $0x8,0x102082
  100b2e:	08 00 
  100b30:	c6 05 84 20 10 00 00 	movb   $0x0,0x102084
  100b37:	c6 05 85 20 10 00 8e 	movb   $0x8e,0x102085
  100b3e:	b8 2f 12 10 00       	mov    $0x10122f,%eax
  100b43:	66 a3 88 20 10 00    	mov    %ax,0x102088
  100b49:	c1 e8 10             	shr    $0x10,%eax
  100b4c:	66 a3 8e 20 10 00    	mov    %ax,0x10208e
  100b52:	66 c7 05 8a 20 10 00 	movw   $0x8,0x10208a
  100b59:	08 00 
  100b5b:	c6 05 8c 20 10 00 00 	movb   $0x0,0x10208c
  100b62:	c6 05 8d 20 10 00 8e 	movb   $0x8e,0x10208d
  100b69:	b8 37 12 10 00       	mov    $0x101237,%eax
  100b6e:	66 a3 90 20 10 00    	mov    %ax,0x102090
  100b74:	c1 e8 10             	shr    $0x10,%eax
  100b77:	66 a3 96 20 10 00    	mov    %ax,0x102096
  100b7d:	66 c7 05 92 20 10 00 	movw   $0x8,0x102092
  100b84:	08 00 
  100b86:	c6 05 94 20 10 00 00 	movb   $0x0,0x102094
  100b8d:	c6 05 95 20 10 00 8e 	movb   $0x8e,0x102095
  100b94:	b8 3f 12 10 00       	mov    $0x10123f,%eax
  100b99:	66 a3 98 20 10 00    	mov    %ax,0x102098
  100b9f:	c1 e8 10             	shr    $0x10,%eax
  100ba2:	66 a3 9e 20 10 00    	mov    %ax,0x10209e
  100ba8:	66 c7 05 9a 20 10 00 	movw   $0x8,0x10209a
  100baf:	08 00 
  100bb1:	c6 05 9c 20 10 00 00 	movb   $0x0,0x10209c
  100bb8:	c6 05 9d 20 10 00 8e 	movb   $0x8e,0x10209d
  100bbf:	b8 49 12 10 00       	mov    $0x101249,%eax
  100bc4:	66 a3 a0 20 10 00    	mov    %ax,0x1020a0
  100bca:	c1 e8 10             	shr    $0x10,%eax
  100bcd:	66 a3 a6 20 10 00    	mov    %ax,0x1020a6
  100bd3:	66 c7 05 a2 20 10 00 	movw   $0x8,0x1020a2
  100bda:	08 00 
  100bdc:	c6 05 a4 20 10 00 00 	movb   $0x0,0x1020a4
  100be3:	c6 05 a5 20 10 00 8e 	movb   $0x8e,0x1020a5
  100bea:	b8 53 12 10 00       	mov    $0x101253,%eax
  100bef:	66 a3 a8 20 10 00    	mov    %ax,0x1020a8
  100bf5:	c1 e8 10             	shr    $0x10,%eax
  100bf8:	66 a3 ae 20 10 00    	mov    %ax,0x1020ae
  100bfe:	66 c7 05 aa 20 10 00 	movw   $0x8,0x1020aa
  100c05:	08 00 
  100c07:	c6 05 ac 20 10 00 00 	movb   $0x0,0x1020ac
  100c0e:	c6 05 ad 20 10 00 8e 	movb   $0x8e,0x1020ad
  100c15:	b8 5d 12 10 00       	mov    $0x10125d,%eax
  100c1a:	66 a3 b0 20 10 00    	mov    %ax,0x1020b0
  100c20:	c1 e8 10             	shr    $0x10,%eax
  100c23:	66 a3 b6 20 10 00    	mov    %ax,0x1020b6
  100c29:	66 c7 05 b2 20 10 00 	movw   $0x8,0x1020b2
  100c30:	08 00 
  100c32:	c6 05 b4 20 10 00 00 	movb   $0x0,0x1020b4
  100c39:	c6 05 b5 20 10 00 8e 	movb   $0x8e,0x1020b5
  100c40:	b8 67 12 10 00       	mov    $0x101267,%eax
  100c45:	66 a3 b8 20 10 00    	mov    %ax,0x1020b8
  100c4b:	c1 e8 10             	shr    $0x10,%eax
  100c4e:	66 a3 be 20 10 00    	mov    %ax,0x1020be
  100c54:	66 c7 05 ba 20 10 00 	movw   $0x8,0x1020ba
  100c5b:	08 00 
  100c5d:	c6 05 bc 20 10 00 00 	movb   $0x0,0x1020bc
  100c64:	c6 05 bd 20 10 00 8e 	movb   $0x8e,0x1020bd
  100c6b:	b8 71 12 10 00       	mov    $0x101271,%eax
  100c70:	66 a3 c0 20 10 00    	mov    %ax,0x1020c0
  100c76:	c1 e8 10             	shr    $0x10,%eax
  100c79:	66 a3 c6 20 10 00    	mov    %ax,0x1020c6
  100c7f:	66 c7 05 c2 20 10 00 	movw   $0x8,0x1020c2
  100c86:	08 00 
  100c88:	c6 05 c4 20 10 00 00 	movb   $0x0,0x1020c4
  100c8f:	c6 05 c5 20 10 00 8e 	movb   $0x8e,0x1020c5
  100c96:	b8 7b 12 10 00       	mov    $0x10127b,%eax
  100c9b:	66 a3 c8 20 10 00    	mov    %ax,0x1020c8
  100ca1:	c1 e8 10             	shr    $0x10,%eax
  100ca4:	66 a3 ce 20 10 00    	mov    %ax,0x1020ce
  100caa:	66 c7 05 ca 20 10 00 	movw   $0x8,0x1020ca
  100cb1:	08 00 
  100cb3:	c6 05 cc 20 10 00 00 	movb   $0x0,0x1020cc
  100cba:	c6 05 cd 20 10 00 8e 	movb   $0x8e,0x1020cd
  100cc1:	b8 85 12 10 00       	mov    $0x101285,%eax
  100cc6:	66 a3 d0 20 10 00    	mov    %ax,0x1020d0
  100ccc:	c1 e8 10             	shr    $0x10,%eax
  100ccf:	66 a3 d6 20 10 00    	mov    %ax,0x1020d6
  100cd5:	66 c7 05 d2 20 10 00 	movw   $0x8,0x1020d2
  100cdc:	08 00 
  100cde:	c6 05 d4 20 10 00 00 	movb   $0x0,0x1020d4
  100ce5:	c6 05 d5 20 10 00 8e 	movb   $0x8e,0x1020d5
  100cec:	b8 8f 12 10 00       	mov    $0x10128f,%eax
  100cf1:	66 a3 d8 20 10 00    	mov    %ax,0x1020d8
  100cf7:	c1 e8 10             	shr    $0x10,%eax
  100cfa:	66 a3 de 20 10 00    	mov    %ax,0x1020de
  100d00:	66 c7 05 da 20 10 00 	movw   $0x8,0x1020da
  100d07:	08 00 
  100d09:	c6 05 dc 20 10 00 00 	movb   $0x0,0x1020dc
  100d10:	c6 05 dd 20 10 00 8e 	movb   $0x8e,0x1020dd
  100d17:	b8 99 12 10 00       	mov    $0x101299,%eax
  100d1c:	66 a3 e0 20 10 00    	mov    %ax,0x1020e0
  100d22:	c1 e8 10             	shr    $0x10,%eax
  100d25:	66 a3 e6 20 10 00    	mov    %ax,0x1020e6
  100d2b:	66 c7 05 e2 20 10 00 	movw   $0x8,0x1020e2
  100d32:	08 00 
  100d34:	c6 05 e4 20 10 00 00 	movb   $0x0,0x1020e4
  100d3b:	c6 05 e5 20 10 00 8e 	movb   $0x8e,0x1020e5
  100d42:	b8 a3 12 10 00       	mov    $0x1012a3,%eax
  100d47:	66 a3 e8 20 10 00    	mov    %ax,0x1020e8
  100d4d:	c1 e8 10             	shr    $0x10,%eax
  100d50:	66 a3 ee 20 10 00    	mov    %ax,0x1020ee
  100d56:	66 c7 05 ea 20 10 00 	movw   $0x8,0x1020ea
  100d5d:	08 00 
  100d5f:	c6 05 ec 20 10 00 00 	movb   $0x0,0x1020ec
  100d66:	c6 05 ed 20 10 00 8e 	movb   $0x8e,0x1020ed
  100d6d:	b8 ad 12 10 00       	mov    $0x1012ad,%eax
  100d72:	66 a3 f0 20 10 00    	mov    %ax,0x1020f0
  100d78:	c1 e8 10             	shr    $0x10,%eax
  100d7b:	66 a3 f6 20 10 00    	mov    %ax,0x1020f6
  100d81:	66 c7 05 f2 20 10 00 	movw   $0x8,0x1020f2
  100d88:	08 00 
  100d8a:	c6 05 f4 20 10 00 00 	movb   $0x0,0x1020f4
  100d91:	c6 05 f5 20 10 00 8e 	movb   $0x8e,0x1020f5
  100d98:	b8 b7 12 10 00       	mov    $0x1012b7,%eax
  100d9d:	66 a3 f8 20 10 00    	mov    %ax,0x1020f8
  100da3:	c1 e8 10             	shr    $0x10,%eax
  100da6:	66 a3 fe 20 10 00    	mov    %ax,0x1020fe
  100dac:	66 c7 05 fa 20 10 00 	movw   $0x8,0x1020fa
  100db3:	08 00 
  100db5:	c6 05 fc 20 10 00 00 	movb   $0x0,0x1020fc
  100dbc:	c6 05 fd 20 10 00 8e 	movb   $0x8e,0x1020fd
  100dc3:	b8 c1 12 10 00       	mov    $0x1012c1,%eax
  100dc8:	66 a3 00 21 10 00    	mov    %ax,0x102100
  100dce:	c1 e8 10             	shr    $0x10,%eax
  100dd1:	66 a3 06 21 10 00    	mov    %ax,0x102106
  100dd7:	66 c7 05 02 21 10 00 	movw   $0x8,0x102102
  100dde:	08 00 
  100de0:	c6 05 04 21 10 00 00 	movb   $0x0,0x102104
  100de7:	c6 05 05 21 10 00 8e 	movb   $0x8e,0x102105
  100dee:	b8 cb 12 10 00       	mov    $0x1012cb,%eax
  100df3:	66 a3 08 21 10 00    	mov    %ax,0x102108
  100df9:	c1 e8 10             	shr    $0x10,%eax
  100dfc:	66 a3 0e 21 10 00    	mov    %ax,0x10210e
  100e02:	66 c7 05 0a 21 10 00 	movw   $0x8,0x10210a
  100e09:	08 00 
  100e0b:	c6 05 0c 21 10 00 00 	movb   $0x0,0x10210c
  100e12:	c6 05 0d 21 10 00 8e 	movb   $0x8e,0x10210d
  100e19:	b8 d2 12 10 00       	mov    $0x1012d2,%eax
  100e1e:	66 a3 10 21 10 00    	mov    %ax,0x102110
  100e24:	c1 e8 10             	shr    $0x10,%eax
  100e27:	66 a3 16 21 10 00    	mov    %ax,0x102116
  100e2d:	66 c7 05 12 21 10 00 	movw   $0x8,0x102112
  100e34:	08 00 
  100e36:	c6 05 14 21 10 00 00 	movb   $0x0,0x102114
  100e3d:	c6 05 15 21 10 00 8e 	movb   $0x8e,0x102115
  100e44:	b8 d9 12 10 00       	mov    $0x1012d9,%eax
  100e49:	66 a3 18 21 10 00    	mov    %ax,0x102118
  100e4f:	c1 e8 10             	shr    $0x10,%eax
  100e52:	66 a3 1e 21 10 00    	mov    %ax,0x10211e
  100e58:	66 c7 05 1a 21 10 00 	movw   $0x8,0x10211a
  100e5f:	08 00 
  100e61:	c6 05 1c 21 10 00 00 	movb   $0x0,0x10211c
  100e68:	c6 05 1d 21 10 00 8e 	movb   $0x8e,0x10211d
  100e6f:	b8 e0 12 10 00       	mov    $0x1012e0,%eax
  100e74:	66 a3 20 21 10 00    	mov    %ax,0x102120
  100e7a:	c1 e8 10             	shr    $0x10,%eax
  100e7d:	66 a3 26 21 10 00    	mov    %ax,0x102126
  100e83:	66 c7 05 22 21 10 00 	movw   $0x8,0x102122
  100e8a:	08 00 
  100e8c:	c6 05 24 21 10 00 00 	movb   $0x0,0x102124
  100e93:	c6 05 25 21 10 00 8e 	movb   $0x8e,0x102125
  100e9a:	b8 e7 12 10 00       	mov    $0x1012e7,%eax
  100e9f:	66 a3 28 21 10 00    	mov    %ax,0x102128
  100ea5:	c1 e8 10             	shr    $0x10,%eax
  100ea8:	66 a3 2e 21 10 00    	mov    %ax,0x10212e
  100eae:	66 c7 05 2a 21 10 00 	movw   $0x8,0x10212a
  100eb5:	08 00 
  100eb7:	c6 05 2c 21 10 00 00 	movb   $0x0,0x10212c
  100ebe:	c6 05 2d 21 10 00 8e 	movb   $0x8e,0x10212d
  100ec5:	b8 ee 12 10 00       	mov    $0x1012ee,%eax
  100eca:	66 a3 30 21 10 00    	mov    %ax,0x102130
  100ed0:	c1 e8 10             	shr    $0x10,%eax
  100ed3:	66 a3 36 21 10 00    	mov    %ax,0x102136
  100ed9:	66 c7 05 32 21 10 00 	movw   $0x8,0x102132
  100ee0:	08 00 
  100ee2:	c6 05 34 21 10 00 00 	movb   $0x0,0x102134
  100ee9:	c6 05 35 21 10 00 8e 	movb   $0x8e,0x102135
  100ef0:	b8 f5 12 10 00       	mov    $0x1012f5,%eax
  100ef5:	66 a3 38 21 10 00    	mov    %ax,0x102138
  100efb:	c1 e8 10             	shr    $0x10,%eax
  100efe:	66 a3 3e 21 10 00    	mov    %ax,0x10213e
  100f04:	66 c7 05 3a 21 10 00 	movw   $0x8,0x10213a
  100f0b:	08 00 
  100f0d:	c6 05 3c 21 10 00 00 	movb   $0x0,0x10213c
  100f14:	c6 05 3d 21 10 00 8e 	movb   $0x8e,0x10213d
  100f1b:	b8 fc 12 10 00       	mov    $0x1012fc,%eax
  100f20:	66 a3 40 21 10 00    	mov    %ax,0x102140
  100f26:	c1 e8 10             	shr    $0x10,%eax
  100f29:	66 a3 46 21 10 00    	mov    %ax,0x102146
  100f2f:	66 c7 05 42 21 10 00 	movw   $0x8,0x102142
  100f36:	08 00 
  100f38:	c6 05 44 21 10 00 00 	movb   $0x0,0x102144
  100f3f:	c6 05 45 21 10 00 8e 	movb   $0x8e,0x102145
  100f46:	b8 03 13 10 00       	mov    $0x101303,%eax
  100f4b:	66 a3 48 21 10 00    	mov    %ax,0x102148
  100f51:	c1 e8 10             	shr    $0x10,%eax
  100f54:	66 a3 4e 21 10 00    	mov    %ax,0x10214e
  100f5a:	66 c7 05 4a 21 10 00 	movw   $0x8,0x10214a
  100f61:	08 00 
  100f63:	c6 05 4c 21 10 00 00 	movb   $0x0,0x10214c
  100f6a:	c6 05 4d 21 10 00 8e 	movb   $0x8e,0x10214d
  100f71:	b8 0a 13 10 00       	mov    $0x10130a,%eax
  100f76:	66 a3 50 21 10 00    	mov    %ax,0x102150
  100f7c:	c1 e8 10             	shr    $0x10,%eax
  100f7f:	66 a3 56 21 10 00    	mov    %ax,0x102156
  100f85:	66 c7 05 52 21 10 00 	movw   $0x8,0x102152
  100f8c:	08 00 
  100f8e:	c6 05 54 21 10 00 00 	movb   $0x0,0x102154
  100f95:	c6 05 55 21 10 00 8e 	movb   $0x8e,0x102155
  100f9c:	b8 11 13 10 00       	mov    $0x101311,%eax
  100fa1:	66 a3 58 21 10 00    	mov    %ax,0x102158
  100fa7:	c1 e8 10             	shr    $0x10,%eax
  100faa:	66 a3 5e 21 10 00    	mov    %ax,0x10215e
  100fb0:	66 c7 05 5a 21 10 00 	movw   $0x8,0x10215a
  100fb7:	08 00 
  100fb9:	c6 05 5c 21 10 00 00 	movb   $0x0,0x10215c
  100fc0:	c6 05 5d 21 10 00 8e 	movb   $0x8e,0x10215d
  100fc7:	b8 18 13 10 00       	mov    $0x101318,%eax
  100fcc:	66 a3 60 21 10 00    	mov    %ax,0x102160
  100fd2:	c1 e8 10             	shr    $0x10,%eax
  100fd5:	66 a3 66 21 10 00    	mov    %ax,0x102166
  100fdb:	66 c7 05 62 21 10 00 	movw   $0x8,0x102162
  100fe2:	08 00 
  100fe4:	c6 05 64 21 10 00 00 	movb   $0x0,0x102164
  100feb:	c6 05 65 21 10 00 8e 	movb   $0x8e,0x102165
  100ff2:	b8 1f 13 10 00       	mov    $0x10131f,%eax
  100ff7:	66 a3 68 21 10 00    	mov    %ax,0x102168
  100ffd:	c1 e8 10             	shr    $0x10,%eax
  101000:	66 a3 6e 21 10 00    	mov    %ax,0x10216e
  101006:	66 c7 05 6a 21 10 00 	movw   $0x8,0x10216a
  10100d:	08 00 
  10100f:	c6 05 6c 21 10 00 00 	movb   $0x0,0x10216c
  101016:	c6 05 6d 21 10 00 8e 	movb   $0x8e,0x10216d
  10101d:	b8 26 13 10 00       	mov    $0x101326,%eax
  101022:	66 a3 70 21 10 00    	mov    %ax,0x102170
  101028:	c1 e8 10             	shr    $0x10,%eax
  10102b:	66 a3 76 21 10 00    	mov    %ax,0x102176
  101031:	66 c7 05 72 21 10 00 	movw   $0x8,0x102172
  101038:	08 00 
  10103a:	c6 05 74 21 10 00 00 	movb   $0x0,0x102174
  101041:	c6 05 75 21 10 00 8e 	movb   $0x8e,0x102175
  101048:	b8 2d 13 10 00       	mov    $0x10132d,%eax
  10104d:	66 a3 78 21 10 00    	mov    %ax,0x102178
  101053:	c1 e8 10             	shr    $0x10,%eax
  101056:	66 a3 7e 21 10 00    	mov    %ax,0x10217e
  10105c:	66 c7 05 7a 21 10 00 	movw   $0x8,0x10217a
  101063:	08 00 
  101065:	c6 05 7c 21 10 00 00 	movb   $0x0,0x10217c
  10106c:	c6 05 7d 21 10 00 8e 	movb   $0x8e,0x10217d
  101073:	b8 34 13 10 00       	mov    $0x101334,%eax
  101078:	66 a3 80 21 10 00    	mov    %ax,0x102180
  10107e:	c1 e8 10             	shr    $0x10,%eax
  101081:	66 a3 86 21 10 00    	mov    %ax,0x102186
  101087:	66 c7 05 82 21 10 00 	movw   $0x8,0x102182
  10108e:	08 00 
  101090:	c6 05 84 21 10 00 00 	movb   $0x0,0x102184
  101097:	c6 05 85 21 10 00 8e 	movb   $0x8e,0x102185
  10109e:	b8 3b 13 10 00       	mov    $0x10133b,%eax
  1010a3:	66 a3 88 21 10 00    	mov    %ax,0x102188
  1010a9:	c1 e8 10             	shr    $0x10,%eax
  1010ac:	66 a3 8e 21 10 00    	mov    %ax,0x10218e
  1010b2:	66 c7 05 8a 21 10 00 	movw   $0x8,0x10218a
  1010b9:	08 00 
  1010bb:	c6 05 8c 21 10 00 00 	movb   $0x0,0x10218c
  1010c2:	c6 05 8d 21 10 00 8e 	movb   $0x8e,0x10218d
  1010c9:	b8 42 13 10 00       	mov    $0x101342,%eax
  1010ce:	66 a3 90 21 10 00    	mov    %ax,0x102190
  1010d4:	c1 e8 10             	shr    $0x10,%eax
  1010d7:	66 a3 96 21 10 00    	mov    %ax,0x102196
  1010dd:	66 c7 05 92 21 10 00 	movw   $0x8,0x102192
  1010e4:	08 00 
  1010e6:	c6 05 94 21 10 00 00 	movb   $0x0,0x102194
  1010ed:	c6 05 95 21 10 00 8e 	movb   $0x8e,0x102195
  1010f4:	b8 49 13 10 00       	mov    $0x101349,%eax
  1010f9:	66 a3 98 21 10 00    	mov    %ax,0x102198
  1010ff:	c1 e8 10             	shr    $0x10,%eax
  101102:	66 a3 9e 21 10 00    	mov    %ax,0x10219e
  101108:	66 c7 05 9a 21 10 00 	movw   $0x8,0x10219a
  10110f:	08 00 
  101111:	c6 05 9c 21 10 00 00 	movb   $0x0,0x10219c
  101118:	c6 05 9d 21 10 00 8e 	movb   $0x8e,0x10219d
  10111f:	31 c0                	xor    %eax,%eax
  101121:	8d 76 00             	lea    0x0(%esi),%esi
  101124:	c7 04 85 20 28 10 00 	movl   $0x100714,0x102820(,%eax,4)
  10112b:	14 07 10 00 
  10112f:	40                   	inc    %eax
  101130:	83 f8 20             	cmp    $0x20,%eax
  101133:	75 ef                	jne    101124 <IDT_init+0x828>
  101135:	83 ec 1c             	sub    $0x1c,%esp
  101138:	a1 00 20 10 00       	mov    0x102000,%eax
  10113d:	89 04 24             	mov    %eax,(%esp)
  101140:	66 a1 04 20 10 00    	mov    0x102004,%ax
  101146:	66 89 44 24 04       	mov    %ax,0x4(%esp)
  10114b:	e8 24 02 00 00       	call   101374 <load_idt>
  101150:	83 c4 1c             	add    $0x1c,%esp
  101153:	c3                   	ret    

00101154 <interrupts_init>:
  101154:	83 ec 0c             	sub    $0xc,%esp
  101157:	e8 a8 f5 ff ff       	call   100704 <PIC_init>
  10115c:	e8 9b f7 ff ff       	call   1008fc <IDT_init>
  101161:	fb                   	sti    
  101162:	83 c4 0c             	add    $0xc,%esp
  101165:	c3                   	ret    

00101166 <outportb>:
  101166:	66 8b 54 24 04       	mov    0x4(%esp),%dx
  10116b:	8a 44 24 08          	mov    0x8(%esp),%al
  10116f:	ee                   	out    %al,(%dx)
  101170:	c3                   	ret    

00101171 <inportb>:
  101171:	31 c0                	xor    %eax,%eax
  101173:	66 8b 54 24 04       	mov    0x4(%esp),%dx
  101178:	ec                   	in     (%dx),%al
  101179:	c3                   	ret    

0010117a <io_wait>:
  10117a:	e6 50                	out    %al,$0x50
  10117c:	c3                   	ret    

0010117d <_KernelEntry>:
  10117d:	bc 48 ac 10 00       	mov    $0x10ac48,%esp
  101182:	53                   	push   %ebx
  101183:	e8 60 ef ff ff       	call   1000e8 <Alo_Main>
  101188:	5b                   	pop    %ebx
  101189:	b8 00 00 00 00       	mov    $0x0,%eax
  10118e:	f7 f8                	idiv   %eax

00101190 <.InfiniteJumpLoop>:
  101190:	eb fe                	jmp    101190 <.InfiniteJumpLoop>

00101192 <Reload_CS>:
  101192:	cb                   	lret   

00101193 <load_gdt>:
  101193:	31 d2                	xor    %edx,%edx
  101195:	66 8b 54 24 10       	mov    0x10(%esp),%dx
  10119a:	66 8b 44 24 0c       	mov    0xc(%esp),%ax
  10119f:	0f 01 54 24 04       	lgdtl  0x4(%esp)
  1011a4:	8e d8                	mov    %eax,%ds
  1011a6:	8e c0                	mov    %eax,%es
  1011a8:	8e e0                	mov    %eax,%fs
  1011aa:	8e e8                	mov    %eax,%gs
  1011ac:	8e d0                	mov    %eax,%ss
  1011ae:	52                   	push   %edx
  1011af:	e8 de ff ff ff       	call   101192 <Reload_CS>
  1011b4:	c3                   	ret    

001011b5 <ISR_0>:
  1011b5:	fa                   	cli    
  1011b6:	6a 00                	push   $0x0
  1011b8:	6a 00                	push   $0x0
  1011ba:	e9 91 01 00 00       	jmp    101350 <MainInterruptPiece>

001011bf <ISR_1>:
  1011bf:	fa                   	cli    
  1011c0:	6a 00                	push   $0x0
  1011c2:	6a 01                	push   $0x1
  1011c4:	e9 87 01 00 00       	jmp    101350 <MainInterruptPiece>

001011c9 <ISR_2>:
  1011c9:	fa                   	cli    
  1011ca:	6a 00                	push   $0x0
  1011cc:	6a 02                	push   $0x2
  1011ce:	e9 7d 01 00 00       	jmp    101350 <MainInterruptPiece>

001011d3 <ISR_3>:
  1011d3:	fa                   	cli    
  1011d4:	6a 00                	push   $0x0
  1011d6:	6a 03                	push   $0x3
  1011d8:	e9 73 01 00 00       	jmp    101350 <MainInterruptPiece>

001011dd <ISR_4>:
  1011dd:	fa                   	cli    
  1011de:	6a 00                	push   $0x0
  1011e0:	6a 04                	push   $0x4
  1011e2:	e9 69 01 00 00       	jmp    101350 <MainInterruptPiece>

001011e7 <ISR_5>:
  1011e7:	fa                   	cli    
  1011e8:	6a 00                	push   $0x0
  1011ea:	6a 05                	push   $0x5
  1011ec:	e9 5f 01 00 00       	jmp    101350 <MainInterruptPiece>

001011f1 <ISR_6>:
  1011f1:	fa                   	cli    
  1011f2:	6a 00                	push   $0x0
  1011f4:	6a 06                	push   $0x6
  1011f6:	e9 55 01 00 00       	jmp    101350 <MainInterruptPiece>

001011fb <ISR_7>:
  1011fb:	fa                   	cli    
  1011fc:	6a 00                	push   $0x0
  1011fe:	6a 07                	push   $0x7
  101200:	e9 4b 01 00 00       	jmp    101350 <MainInterruptPiece>

00101205 <ISR_8>:
  101205:	fa                   	cli    
  101206:	6a 08                	push   $0x8
  101208:	e9 43 01 00 00       	jmp    101350 <MainInterruptPiece>

0010120d <ISR_9>:
  10120d:	fa                   	cli    
  10120e:	6a 00                	push   $0x0
  101210:	6a 09                	push   $0x9
  101212:	e9 39 01 00 00       	jmp    101350 <MainInterruptPiece>

00101217 <ISR_10>:
  101217:	fa                   	cli    
  101218:	6a 0a                	push   $0xa
  10121a:	e9 31 01 00 00       	jmp    101350 <MainInterruptPiece>

0010121f <ISR_11>:
  10121f:	fa                   	cli    
  101220:	6a 0b                	push   $0xb
  101222:	e9 29 01 00 00       	jmp    101350 <MainInterruptPiece>

00101227 <ISR_12>:
  101227:	fa                   	cli    
  101228:	6a 0c                	push   $0xc
  10122a:	e9 21 01 00 00       	jmp    101350 <MainInterruptPiece>

0010122f <ISR_13>:
  10122f:	fa                   	cli    
  101230:	6a 0d                	push   $0xd
  101232:	e9 19 01 00 00       	jmp    101350 <MainInterruptPiece>

00101237 <ISR_14>:
  101237:	fa                   	cli    
  101238:	6a 0e                	push   $0xe
  10123a:	e9 11 01 00 00       	jmp    101350 <MainInterruptPiece>

0010123f <ISR_15>:
  10123f:	fa                   	cli    
  101240:	6a 00                	push   $0x0
  101242:	6a 0f                	push   $0xf
  101244:	e9 07 01 00 00       	jmp    101350 <MainInterruptPiece>

00101249 <ISR_16>:
  101249:	fa                   	cli    
  10124a:	6a 00                	push   $0x0
  10124c:	6a 10                	push   $0x10
  10124e:	e9 fd 00 00 00       	jmp    101350 <MainInterruptPiece>

00101253 <ISR_17>:
  101253:	fa                   	cli    
  101254:	6a 00                	push   $0x0
  101256:	6a 11                	push   $0x11
  101258:	e9 f3 00 00 00       	jmp    101350 <MainInterruptPiece>

0010125d <ISR_18>:
  10125d:	fa                   	cli    
  10125e:	6a 00                	push   $0x0
  101260:	6a 12                	push   $0x12
  101262:	e9 e9 00 00 00       	jmp    101350 <MainInterruptPiece>

00101267 <ISR_19>:
  101267:	fa                   	cli    
  101268:	6a 00                	push   $0x0
  10126a:	6a 13                	push   $0x13
  10126c:	e9 df 00 00 00       	jmp    101350 <MainInterruptPiece>

00101271 <ISR_20>:
  101271:	fa                   	cli    
  101272:	6a 00                	push   $0x0
  101274:	6a 14                	push   $0x14
  101276:	e9 d5 00 00 00       	jmp    101350 <MainInterruptPiece>

0010127b <ISR_21>:
  10127b:	fa                   	cli    
  10127c:	6a 00                	push   $0x0
  10127e:	6a 15                	push   $0x15
  101280:	e9 cb 00 00 00       	jmp    101350 <MainInterruptPiece>

00101285 <ISR_22>:
  101285:	fa                   	cli    
  101286:	6a 00                	push   $0x0
  101288:	6a 16                	push   $0x16
  10128a:	e9 c1 00 00 00       	jmp    101350 <MainInterruptPiece>

0010128f <ISR_23>:
  10128f:	fa                   	cli    
  101290:	6a 00                	push   $0x0
  101292:	6a 17                	push   $0x17
  101294:	e9 b7 00 00 00       	jmp    101350 <MainInterruptPiece>

00101299 <ISR_24>:
  101299:	fa                   	cli    
  10129a:	6a 00                	push   $0x0
  10129c:	6a 18                	push   $0x18
  10129e:	e9 ad 00 00 00       	jmp    101350 <MainInterruptPiece>

001012a3 <ISR_25>:
  1012a3:	fa                   	cli    
  1012a4:	6a 00                	push   $0x0
  1012a6:	6a 19                	push   $0x19
  1012a8:	e9 a3 00 00 00       	jmp    101350 <MainInterruptPiece>

001012ad <ISR_26>:
  1012ad:	fa                   	cli    
  1012ae:	6a 00                	push   $0x0
  1012b0:	6a 1a                	push   $0x1a
  1012b2:	e9 99 00 00 00       	jmp    101350 <MainInterruptPiece>

001012b7 <ISR_27>:
  1012b7:	fa                   	cli    
  1012b8:	6a 00                	push   $0x0
  1012ba:	6a 1b                	push   $0x1b
  1012bc:	e9 8f 00 00 00       	jmp    101350 <MainInterruptPiece>

001012c1 <ISR_28>:
  1012c1:	fa                   	cli    
  1012c2:	6a 00                	push   $0x0
  1012c4:	6a 1c                	push   $0x1c
  1012c6:	e9 85 00 00 00       	jmp    101350 <MainInterruptPiece>

001012cb <ISR_29>:
  1012cb:	fa                   	cli    
  1012cc:	6a 00                	push   $0x0
  1012ce:	6a 1d                	push   $0x1d
  1012d0:	eb 7e                	jmp    101350 <MainInterruptPiece>

001012d2 <ISR_30>:
  1012d2:	fa                   	cli    
  1012d3:	6a 00                	push   $0x0
  1012d5:	6a 1e                	push   $0x1e
  1012d7:	eb 77                	jmp    101350 <MainInterruptPiece>

001012d9 <ISR_31>:
  1012d9:	fa                   	cli    
  1012da:	6a 00                	push   $0x0
  1012dc:	6a 1f                	push   $0x1f
  1012de:	eb 70                	jmp    101350 <MainInterruptPiece>

001012e0 <ISR_32>:
  1012e0:	fa                   	cli    
  1012e1:	6a 00                	push   $0x0
  1012e3:	6a 20                	push   $0x20
  1012e5:	eb 69                	jmp    101350 <MainInterruptPiece>

001012e7 <ISR_33>:
  1012e7:	fa                   	cli    
  1012e8:	6a 00                	push   $0x0
  1012ea:	6a 21                	push   $0x21
  1012ec:	eb 62                	jmp    101350 <MainInterruptPiece>

001012ee <ISR_34>:
  1012ee:	fa                   	cli    
  1012ef:	6a 00                	push   $0x0
  1012f1:	6a 22                	push   $0x22
  1012f3:	eb 5b                	jmp    101350 <MainInterruptPiece>

001012f5 <ISR_35>:
  1012f5:	fa                   	cli    
  1012f6:	6a 00                	push   $0x0
  1012f8:	6a 23                	push   $0x23
  1012fa:	eb 54                	jmp    101350 <MainInterruptPiece>

001012fc <ISR_36>:
  1012fc:	fa                   	cli    
  1012fd:	6a 00                	push   $0x0
  1012ff:	6a 24                	push   $0x24
  101301:	eb 4d                	jmp    101350 <MainInterruptPiece>

00101303 <ISR_37>:
  101303:	fa                   	cli    
  101304:	6a 00                	push   $0x0
  101306:	6a 25                	push   $0x25
  101308:	eb 46                	jmp    101350 <MainInterruptPiece>

0010130a <ISR_38>:
  10130a:	fa                   	cli    
  10130b:	6a 00                	push   $0x0
  10130d:	6a 26                	push   $0x26
  10130f:	eb 3f                	jmp    101350 <MainInterruptPiece>

00101311 <ISR_39>:
  101311:	fa                   	cli    
  101312:	6a 00                	push   $0x0
  101314:	6a 27                	push   $0x27
  101316:	eb 38                	jmp    101350 <MainInterruptPiece>

00101318 <ISR_40>:
  101318:	fa                   	cli    
  101319:	6a 00                	push   $0x0
  10131b:	6a 28                	push   $0x28
  10131d:	eb 31                	jmp    101350 <MainInterruptPiece>

0010131f <ISR_41>:
  10131f:	fa                   	cli    
  101320:	6a 00                	push   $0x0
  101322:	6a 29                	push   $0x29
  101324:	eb 2a                	jmp    101350 <MainInterruptPiece>

00101326 <ISR_42>:
  101326:	fa                   	cli    
  101327:	6a 00                	push   $0x0
  101329:	6a 2a                	push   $0x2a
  10132b:	eb 23                	jmp    101350 <MainInterruptPiece>

0010132d <ISR_43>:
  10132d:	fa                   	cli    
  10132e:	6a 00                	push   $0x0
  101330:	6a 2b                	push   $0x2b
  101332:	eb 1c                	jmp    101350 <MainInterruptPiece>

00101334 <ISR_44>:
  101334:	fa                   	cli    
  101335:	6a 00                	push   $0x0
  101337:	6a 2c                	push   $0x2c
  101339:	eb 15                	jmp    101350 <MainInterruptPiece>

0010133b <ISR_45>:
  10133b:	fa                   	cli    
  10133c:	6a 00                	push   $0x0
  10133e:	6a 2d                	push   $0x2d
  101340:	eb 0e                	jmp    101350 <MainInterruptPiece>

00101342 <ISR_46>:
  101342:	fa                   	cli    
  101343:	6a 00                	push   $0x0
  101345:	6a 2e                	push   $0x2e
  101347:	eb 07                	jmp    101350 <MainInterruptPiece>

00101349 <ISR_47>:
  101349:	fa                   	cli    
  10134a:	6a 00                	push   $0x0
  10134c:	6a 2f                	push   $0x2f
  10134e:	eb 00                	jmp    101350 <MainInterruptPiece>

00101350 <MainInterruptPiece>:
  101350:	60                   	pusha  
  101351:	1e                   	push   %ds
  101352:	06                   	push   %es
  101353:	0f a0                	push   %fs
  101355:	0f a8                	push   %gs
  101357:	66 b8 10 00          	mov    $0x10,%ax
  10135b:	8e d8                	mov    %eax,%ds
  10135d:	8e c0                	mov    %eax,%es
  10135f:	8e e0                	mov    %eax,%fs
  101361:	8e e8                	mov    %eax,%gs
  101363:	e8 f0 f4 ff ff       	call   100858 <Interrupt_Handler>
  101368:	0f a9                	pop    %gs
  10136a:	0f a1                	pop    %fs
  10136c:	07                   	pop    %es
  10136d:	1f                   	pop    %ds
  10136e:	61                   	popa   
  10136f:	83 c4 08             	add    $0x8,%esp
  101372:	fb                   	sti    
  101373:	cf                   	iret   

00101374 <load_idt>:
  101374:	0f 01 5c 24 04       	lidtl  0x4(%esp)
  101379:	c3                   	ret    
